target datalayout = "e-m:e-p270:32:32-p271:32:32-p272:64:64-i64:64-i128:128-f80:128-n8:16:32:64-S128"
target triple = "x86_64-pc-linux-gnu"

%class.btCompoundCollisionAlgorithm = type { %class.btActivatingCollisionAlgorithm, %class.btAlignedObjectArray, %class.btAlignedObjectArray.0, %class.btAlignedObjectArray.2, i8, ptr, i8, i32 }
%class.btActivatingCollisionAlgorithm = type { %class.btCollisionAlgorithm }
%class.btCollisionAlgorithm = type { ptr, ptr }
%class.btAlignedObjectArray = type <{ [4 x i8], i32, i32, [4 x i8], ptr, i8, [7 x i8] }>
%class.btAlignedObjectArray.0 = type <{ [4 x i8], i32, i32, [4 x i8], ptr, i8, [7 x i8] }>
%class.btAlignedObjectArray.2 = type <{ [4 x i8], i32, i32, [4 x i8], ptr, i8, [7 x i8] }>

; Function Attrs: inlinehint mustprogress nounwind uwtable
define linkonce_odr dso_local noundef nonnull align 8 dereferenceable(8) ptr @_ZN20btAlignedObjectArrayIP20btCollisionAlgorithmEixEi(ptr noundef nonnull align 8 dereferenceable(25) %0, i32 noundef %1) #5 comdat align 2 {
  %3 = alloca ptr, align 8
  %4 = alloca i32, align 4
  store ptr %0, ptr %3, align 8, !tbaa !50
  store i32 %1, ptr %4, align 4, !tbaa !9
  %5 = load ptr, ptr %3, align 8
  %6 = getelementptr inbounds nuw %class.btAlignedObjectArray.2, ptr %5, i32 0, i32 4
  %7 = load ptr, ptr %6, align 8, !tbaa !74
  %8 = load i32, ptr %4, align 4, !tbaa !9
  %9 = sext i32 %8 to i64
  %10 = getelementptr inbounds ptr, ptr %7, i64 %9
  ret ptr %10
}

; Function Attrs: inlinehint mustprogress nounwind uwtable
define linkonce_odr dso_local noundef i32 @_ZNK20btAlignedObjectArrayIP20btCollisionAlgorithmE4sizeEv(ptr noundef nonnull align 8 dereferenceable(25) %0) #5 comdat align 2 {
  %2 = alloca ptr, align 8
  store ptr %0, ptr %2, align 8, !tbaa !50
  %3 = load ptr, ptr %2, align 8
  %4 = getelementptr inbounds nuw %class.btAlignedObjectArray.2, ptr %3, i32 0, i32 1
  %5 = load i32, ptr %4, align 4, !tbaa !76
  ret i32 %5
}

; Function Attrs: mustprogress uwtable
define dso_local void @_ZN28btCompoundCollisionAlgorithm21removeChildAlgorithmsEv(ptr noundef nonnull align 8 dereferenceable(136) %0) #2 align 2 {
  %2 = alloca ptr, align 8
  %3 = alloca i32, align 4
  %4 = alloca i32, align 4
  store ptr %0, ptr %2, align 8, !tbaa !12
  %5 = load ptr, ptr %2, align 8
  call void @llvm.lifetime.start.p0(i64 4, ptr %3) #14
  %6 = getelementptr inbounds nuw %class.btCompoundCollisionAlgorithm, ptr %5, i32 0, i32 3
  %7 = call noundef i32 @_ZNK20btAlignedObjectArrayIP20btCollisionAlgorithmE4sizeEv(ptr noundef nonnull align 8 dereferenceable(25) %6)
  store i32 %7, ptr %3, align 4, !tbaa !9
  call void @llvm.lifetime.start.p0(i64 4, ptr %4) #14
  store i32 0, ptr %4, align 4, !tbaa !9
  br label %8

8:                                                ; preds = %36, %1
  %9 = load i32, ptr %4, align 4, !tbaa !9
  %10 = load i32, ptr %3, align 4, !tbaa !9
  %11 = icmp slt i32 %9, %10
  br i1 %11, label %12, label %39

12:                                               ; preds = %8
  %13 = getelementptr inbounds nuw %class.btCompoundCollisionAlgorithm, ptr %5, i32 0, i32 3
  %14 = load i32, ptr %4, align 4, !tbaa !9
  %15 = call noundef nonnull align 8 dereferenceable(8) ptr @_ZN20btAlignedObjectArrayIP20btCollisionAlgorithmEixEi(ptr noundef nonnull align 8 dereferenceable(25) %13, i32 noundef %14)
  %16 = load ptr, ptr %15, align 8, !tbaa !66
  %17 = icmp ne ptr %16, null
  br i1 %17, label %18, label %35

18:                                               ; preds = %12
  %19 = getelementptr inbounds nuw %class.btCompoundCollisionAlgorithm, ptr %5, i32 0, i32 3
  %20 = load i32, ptr %4, align 4, !tbaa !9
  %21 = call noundef nonnull align 8 dereferenceable(8) ptr @_ZN20btAlignedObjectArrayIP20btCollisionAlgorithmEixEi(ptr noundef nonnull align 8 dereferenceable(25) %19, i32 noundef %20)
  %22 = load ptr, ptr %21, align 8, !tbaa !66
  %23 = load ptr, ptr %22, align 8, !tbaa !20
  %24 = getelementptr inbounds ptr, ptr %23, i64 0
  %25 = load ptr, ptr %24, align 8
  call void %25(ptr noundef nonnull align 8 dereferenceable(16) %22) #14
  %26 = getelementptr inbounds nuw %class.btCollisionAlgorithm, ptr %5, i32 0, i32 1
  %27 = load ptr, ptr %26, align 8, !tbaa !69
  %28 = getelementptr inbounds nuw %class.btCompoundCollisionAlgorithm, ptr %5, i32 0, i32 3
  %29 = load i32, ptr %4, align 4, !tbaa !9
  %30 = call noundef nonnull align 8 dereferenceable(8) ptr @_ZN20btAlignedObjectArrayIP20btCollisionAlgorithmEixEi(ptr noundef nonnull align 8 dereferenceable(25) %28, i32 noundef %29)
  %31 = load ptr, ptr %30, align 8, !tbaa !66
  %32 = load ptr, ptr %27, align 8, !tbaa !20
  %33 = getelementptr inbounds ptr, ptr %32, i64 15
  %34 = load ptr, ptr %33, align 8
  call void %34(ptr noundef nonnull align 8 dereferenceable(8) %27, ptr noundef %31)
  br label %35

35:                                               ; preds = %18, %12
  br label %36

36:                                               ; preds = %35
  %37 = load i32, ptr %4, align 4, !tbaa !9
  %38 = add nsw i32 %37, 1
  store i32 %38, ptr %4, align 4, !tbaa !9
  br label %8, !llvm.loop !91

39:                                               ; preds = %8
  call void @llvm.lifetime.end.p0(i64 4, ptr %4) #14
  call void @llvm.lifetime.end.p0(i64 4, ptr %3) #14
  ret void
}