; Function Attrs: mustprogress uwtable
define dso_local void @_ZN28btCompoundCollisionAlgorithm21removeChildAlgorithmsEv(ptr noundef nonnull readonly align 8 captures(none) dereferenceable(136) %0) local_unnamed_addr #0 align 2 {
  %2 = getelementptr inbounds nuw i8, ptr %0, i64 84
  %3 = load i32, ptr %2, align 4, !tbaa !30
  %4 = icmp sgt i32 %3, 0
  br i1 %4, label %.lr.ph, label %._crit_edge

.lr.ph:                                           ; preds = %1
  %5 = getelementptr inbounds nuw i8, ptr %0, i64 96
  %6 = getelementptr inbounds nuw i8, ptr %0, i64 8
  %wide.trip.count = zext nneg i32 %3 to i64
  br label %7

7:                                                ; preds = %.lr.ph, %21
  %indvars.iv = phi i64 [ 0, %.lr.ph ], [ %indvars.iv.next, %21 ]
  %8 = load ptr, ptr %5, align 8, !tbaa !29
  %9 = getelementptr inbounds nuw ptr, ptr %8, i64 %indvars.iv
  %10 = load ptr, ptr %9, align 8, !tbaa !61
  %.not = icmp eq ptr %10, null
  br i1 %.not, label %21, label %11

11:                                               ; preds = %7
  %12 = load ptr, ptr %10, align 8, !tbaa !4
  %13 = load ptr, ptr %12, align 8
  tail call void %13(ptr noundef nonnull align 8 dereferenceable(16) %10) #15
  %14 = load ptr, ptr %6, align 8, !tbaa !79
  %15 = load ptr, ptr %5, align 8, !tbaa !29
  %16 = getelementptr inbounds nuw ptr, ptr %15, i64 %indvars.iv
  %17 = load ptr, ptr %16, align 8, !tbaa !61
  %18 = load ptr, ptr %14, align 8, !tbaa !4
  %19 = getelementptr inbounds nuw i8, ptr %18, i64 120
  %20 = load ptr, ptr %19, align 8
  tail call void %20(ptr noundef nonnull align 8 dereferenceable(8) %14, ptr noundef %17)
  br label %21

21:                                               ; preds = %7, %11
  %indvars.iv.next = add nuw nsw i64 %indvars.iv, 1
  %exitcond.not = icmp eq i64 %indvars.iv.next, %wide.trip.count
  br i1 %exitcond.not, label %._crit_edge, label %7, !llvm.loop !82

._crit_edge:                                      ; preds = %21, %1
  ret void
}